; ModuleID = '19/453.c'
source_filename = "19/453.c"
target datalayout = "e-m:e-p270:32:32-p271:32:32-p272:64:64-i64:64-f80:128-n8:16:32:64-S128"
target triple = "x86_64-pc-linux-gnu"

@.str = private unnamed_addr constant [3 x i8] c"%s\00", align 1
@.str.1 = private unnamed_addr constant [2 x i8] c" \00", align 1

; Function Attrs: noinline nounwind uwtable
define dso_local void @main() #0 {
  %1 = alloca i32, align 4
  %2 = alloca i32, align 4
  %3 = alloca i32, align 4
  %4 = alloca i32, align 4
  %5 = alloca [100 x i8]*, align 8
  %6 = alloca i8*, align 8
  %7 = alloca i8*, align 8
  %8 = alloca i8*, align 8
  %9 = alloca [100 x i8], align 16
  %10 = alloca [100 x [100 x i8]], align 16
  %11 = alloca [100 x i8], align 16
  %12 = alloca [100 x i8], align 16
  store i32 0, i32* %4, align 4
  store i32 1, i32* %3, align 4
  %13 = getelementptr inbounds [100 x [100 x i8]], [100 x [100 x i8]]* %10, i64 0, i64 0
  store [100 x i8]* %13, [100 x i8]** %5, align 8
  %14 = getelementptr inbounds [100 x i8], [100 x i8]* %11, i64 0, i64 0
  store i8* %14, i8** %6, align 8
  %15 = getelementptr inbounds [100 x i8], [100 x i8]* %12, i64 0, i64 0
  store i8* %15, i8** %7, align 8
  %16 = getelementptr inbounds [100 x i8], [100 x i8]* %9, i64 0, i64 0
  store i8* %16, i8** %8, align 8
  %17 = getelementptr inbounds [100 x i8], [100 x i8]* %9, i64 0, i64 0
  %18 = call i32 (i8*, ...) bitcast (i32 (...)* @gets to i32 (i8*, ...)*)(i8* %17)
  %19 = getelementptr inbounds [100 x i8], [100 x i8]* %11, i64 0, i64 0
  %20 = call i32 (i8*, ...) bitcast (i32 (...)* @gets to i32 (i8*, ...)*)(i8* %19)
  %21 = getelementptr inbounds [100 x i8], [100 x i8]* %12, i64 0, i64 0
  %22 = call i32 (i8*, ...) bitcast (i32 (...)* @gets to i32 (i8*, ...)*)(i8* %21)
  store i32 0, i32* %1, align 4
  br label %23

23:                                               ; preds = %43, %0
  %24 = load i8*, i8** %8, align 8
  %25 = load i32, i32* %1, align 4
  %26 = sext i32 %25 to i64
  %27 = getelementptr inbounds i8, i8* %24, i64 %26
  %28 = load i8, i8* %27, align 1
  %29 = sext i8 %28 to i32
  %30 = icmp ne i32 %29, 0
  br i1 %30, label %31, label %46

31:                                               ; preds = %23
  %32 = load i8*, i8** %8, align 8
  %33 = load i32, i32* %1, align 4
  %34 = sext i32 %33 to i64
  %35 = getelementptr inbounds i8, i8* %32, i64 %34
  %36 = load i8, i8* %35, align 1
  %37 = sext i8 %36 to i32
  %38 = icmp eq i32 %37, 32
  br i1 %38, label %39, label %42

39:                                               ; preds = %31
  %40 = load i32, i32* %3, align 4
  %41 = add nsw i32 %40, 1
  store i32 %41, i32* %3, align 4
  br label %42

42:                                               ; preds = %39, %31
  br label %43

43:                                               ; preds = %42
  %44 = load i32, i32* %1, align 4
  %45 = add nsw i32 %44, 1
  store i32 %45, i32* %1, align 4
  br label %23

46:                                               ; preds = %23
  store i32 0, i32* %1, align 4
  br label %47

47:                                               ; preds = %104, %46
  %48 = load i8*, i8** %8, align 8
  %49 = load i32, i32* %4, align 4
  %50 = sext i32 %49 to i64
  %51 = getelementptr inbounds i8, i8* %48, i64 %50
  %52 = load i8, i8* %51, align 1
  %53 = sext i8 %52 to i32
  %54 = icmp ne i32 %53, 0
  br i1 %54, label %55, label %107

55:                                               ; preds = %47
  store i32 0, i32* %2, align 4
  br label %56

56:                                               ; preds = %90, %55
  %57 = load i8*, i8** %8, align 8
  %58 = load i32, i32* %4, align 4
  %59 = sext i32 %58 to i64
  %60 = getelementptr inbounds i8, i8* %57, i64 %59
  %61 = load i8, i8* %60, align 1
  %62 = sext i8 %61 to i32
  %63 = icmp ne i32 %62, 32
  br i1 %63, label %64, label %72

64:                                               ; preds = %56
  %65 = load i8*, i8** %8, align 8
  %66 = load i32, i32* %4, align 4
  %67 = sext i32 %66 to i64
  %68 = getelementptr inbounds i8, i8* %65, i64 %67
  %69 = load i8, i8* %68, align 1
  %70 = sext i8 %69 to i32
  %71 = icmp ne i32 %70, 0
  br label %72

72:                                               ; preds = %64, %56
  %73 = phi i1 [ false, %56 ], [ %71, %64 ]
  br i1 %73, label %74, label %93

74:                                               ; preds = %72
  %75 = load i8*, i8** %8, align 8
  %76 = load i32, i32* %4, align 4
  %77 = sext i32 %76 to i64
  %78 = getelementptr inbounds i8, i8* %75, i64 %77
  %79 = load i8, i8* %78, align 1
  %80 = load [100 x i8]*, [100 x i8]** %5, align 8
  %81 = load i32, i32* %1, align 4
  %82 = sext i32 %81 to i64
  %83 = getelementptr inbounds [100 x i8], [100 x i8]* %80, i64 %82
  %84 = getelementptr inbounds [100 x i8], [100 x i8]* %83, i64 0, i64 0
  %85 = load i32, i32* %2, align 4
  %86 = sext i32 %85 to i64
  %87 = getelementptr inbounds i8, i8* %84, i64 %86
  store i8 %79, i8* %87, align 1
  %88 = load i32, i32* %4, align 4
  %89 = add nsw i32 %88, 1
  store i32 %89, i32* %4, align 4
  br label %90

90:                                               ; preds = %74
  %91 = load i32, i32* %2, align 4
  %92 = add nsw i32 %91, 1
  store i32 %92, i32* %2, align 4
  br label %56

93:                                               ; preds = %72
  %94 = load [100 x i8]*, [100 x i8]** %5, align 8
  %95 = load i32, i32* %1, align 4
  %96 = sext i32 %95 to i64
  %97 = getelementptr inbounds [100 x i8], [100 x i8]* %94, i64 %96
  %98 = getelementptr inbounds [100 x i8], [100 x i8]* %97, i64 0, i64 0
  %99 = load i32, i32* %2, align 4
  %100 = sext i32 %99 to i64
  %101 = getelementptr inbounds i8, i8* %98, i64 %100
  store i8 0, i8* %101, align 1
  %102 = load i32, i32* %4, align 4
  %103 = add nsw i32 %102, 1
  store i32 %103, i32* %4, align 4
  br label %104

104:                                              ; preds = %93
  %105 = load i32, i32* %1, align 4
  %106 = add nsw i32 %105, 1
  store i32 %106, i32* %1, align 4
  br label %47

107:                                              ; preds = %47
  %108 = load i32, i32* %4, align 4
  %109 = sub nsw i32 %108, 1
  store i32 %109, i32* %4, align 4
  store i32 0, i32* %1, align 4
  br label %110

110:                                              ; preds = %132, %107
  %111 = load i32, i32* %1, align 4
  %112 = load i32, i32* %4, align 4
  %113 = icmp slt i32 %111, %112
  br i1 %113, label %114, label %135

114:                                              ; preds = %110
  %115 = load [100 x i8]*, [100 x i8]** %5, align 8
  %116 = load i32, i32* %1, align 4
  %117 = sext i32 %116 to i64
  %118 = getelementptr inbounds [100 x i8], [100 x i8]* %115, i64 %117
  %119 = getelementptr inbounds [100 x i8], [100 x i8]* %118, i64 0, i64 0
  %120 = load i8*, i8** %6, align 8
  %121 = call i32 @strcmp(i8* %119, i8* %120) #4
  %122 = icmp eq i32 %121, 0
  br i1 %122, label %123, label %131

123:                                              ; preds = %114
  %124 = load [100 x i8]*, [100 x i8]** %5, align 8
  %125 = load i32, i32* %1, align 4
  %126 = sext i32 %125 to i64
  %127 = getelementptr inbounds [100 x i8], [100 x i8]* %124, i64 %126
  %128 = getelementptr inbounds [100 x i8], [100 x i8]* %127, i64 0, i64 0
  %129 = load i8*, i8** %7, align 8
  %130 = call i8* @strcpy(i8* %128, i8* %129) #5
  br label %131

131:                                              ; preds = %123, %114
  br label %132

132:                                              ; preds = %131
  %133 = load i32, i32* %1, align 4
  %134 = add nsw i32 %133, 1
  store i32 %134, i32* %1, align 4
  br label %110

135:                                              ; preds = %110
  store i32 0, i32* %1, align 4
  br label %136

136:                                              ; preds = %149, %135
  %137 = load i32, i32* %1, align 4
  %138 = load i32, i32* %3, align 4
  %139 = sub nsw i32 %138, 1
  %140 = icmp slt i32 %137, %139
  br i1 %140, label %141, label %152

141:                                              ; preds = %136
  %142 = load [100 x i8]*, [100 x i8]** %5, align 8
  %143 = load i32, i32* %1, align 4
  %144 = sext i32 %143 to i64
  %145 = getelementptr inbounds [100 x i8], [100 x i8]* %142, i64 %144
  %146 = getelementptr inbounds [100 x i8], [100 x i8]* %145, i64 0, i64 0
  %147 = call i32 (i8*, ...) @printf(i8* getelementptr inbounds ([3 x i8], [3 x i8]* @.str, i64 0, i64 0), i8* %146)
  %148 = call i32 (i8*, ...) @printf(i8* getelementptr inbounds ([2 x i8], [2 x i8]* @.str.1, i64 0, i64 0))
  br label %149

149:                                              ; preds = %141
  %150 = load i32, i32* %1, align 4
  %151 = add nsw i32 %150, 1
  store i32 %151, i32* %1, align 4
  br label %136

152:                                              ; preds = %136
  %153 = load [100 x i8]*, [100 x i8]** %5, align 8
  %154 = load i32, i32* %3, align 4
  %155 = sext i32 %154 to i64
  %156 = getelementptr inbounds [100 x i8], [100 x i8]* %153, i64 %155
  %157 = getelementptr inbounds [100 x i8], [100 x i8]* %156, i64 -1
  %158 = getelementptr inbounds [100 x i8], [100 x i8]* %157, i64 0, i64 0
  %159 = call i32 (i8*, ...) @printf(i8* getelementptr inbounds ([3 x i8], [3 x i8]* @.str, i64 0, i64 0), i8* %158)
  ret void
}

declare dso_local i32 @gets(...) #1

; Function Attrs: nounwind readonly
declare dso_local i32 @strcmp(i8*, i8*) #2

; Function Attrs: nounwind
declare dso_local i8* @strcpy(i8*, i8*) #3

declare dso_local i32 @printf(i8*, ...) #1


!llvm.module.flags = !{!0}
!llvm.ident = !{!1}

!0 = !{i32 1, !"wchar_size", i32 4}
!1 = !{!"clang version 10.0.0-4ubuntu1 "}
